target datalayout = "e-m:e-p270:32:32-p271:32:32-p272:64:64-i64:64-i128:128-f80:128-n8:16:32:64-S128"
target triple = "x86_64-pc-linux-gnu"

@quiet_flag = external global i32, align 4
@exit_code = external global i32, align 4
@stderr = external global ptr, align 8
@.str.1 = private unnamed_addr constant [40 x i8] c"Failed to locate job for requested pid\0A\00", align 1
@.str.2 = private unnamed_addr constant [27 x i8] c"Failed to get job end time\00", align 1
@.str.3 = private unnamed_addr constant [27 x i8] c"Slurm JobId=%u ends at %s\0A\00", align 1
@.str.4 = private unnamed_addr constant [35 x i8] c"Job remaining time is %ld seconds\0A\00", align 1

; Function Attrs: nounwind uwtable
define dso_local void @scontrol_pid_info(i32 noundef %0) #0 {
  %2 = alloca i32, align 4
  %3 = alloca i32, align 4
  %4 = alloca i32, align 4
  %5 = alloca i64, align 8
  %6 = alloca i64, align 8
  %7 = alloca i32, align 4
  store i32 %0, ptr %2, align 4
  call void @llvm.lifetime.start.p0(i64 4, ptr %3) #9
  call void @llvm.lifetime.start.p0(i64 4, ptr %4) #9
  store i32 0, ptr %4, align 4
  call void @llvm.lifetime.start.p0(i64 8, ptr %5) #9
  call void @llvm.lifetime.start.p0(i64 8, ptr %6) #9
  %8 = load i32, ptr %2, align 4
  %9 = call i32 @slurm_pid2jobid(i32 noundef %8, ptr noundef %4)
  store i32 %9, ptr %3, align 4
  %10 = load i32, ptr %3, align 4
  %11 = icmp ne i32 %10, 0
  br i1 %11, label %12, label %19

12:                                               ; preds = %1
  store i32 1, ptr @exit_code, align 4
  %13 = load i32, ptr @quiet_flag, align 4
  %14 = icmp ne i32 %13, 1
  br i1 %14, label %15, label %18

15:                                               ; preds = %12
  %16 = load ptr, ptr @stderr, align 8
  %17 = call i32 (ptr, ptr, ...) @fprintf(ptr noundef %16, ptr noundef @.str.1) #9
  br label %18

18:                                               ; preds = %15, %12
  store i32 1, ptr %7, align 4
  br label %37

19:                                               ; preds = %1
  %20 = load i32, ptr %4, align 4
  %21 = call i32 @slurm_get_end_time(i32 noundef %20, ptr noundef %5)
  store i32 %21, ptr %3, align 4
  %22 = load i32, ptr %3, align 4
  %23 = icmp ne i32 %22, 0
  br i1 %23, label %24, label %29

24:                                               ; preds = %19
  store i32 1, ptr @exit_code, align 4
  %25 = load i32, ptr @quiet_flag, align 4
  %26 = icmp ne i32 %25, 1
  br i1 %26, label %27, label %28

27:                                               ; preds = %24
  call void @slurm_perror(ptr noundef @.str.2)
  br label %28

28:                                               ; preds = %27, %24
  store i32 1, ptr %7, align 4
  br label %37

29:                                               ; preds = %19
  %30 = load i32, ptr %4, align 4
  %31 = call ptr @slurm_ctime2(ptr noundef %5)
  %32 = call i32 (ptr, ...) @printf(ptr noundef @.str.3, i32 noundef %30, ptr noundef %31)
  %33 = load i32, ptr %4, align 4
  %34 = call i64 @slurm_get_rem_time(i32 noundef %33)
  store i64 %34, ptr %6, align 8
  %35 = load i64, ptr %6, align 8
  %36 = call i32 (ptr, ...) @printf(ptr noundef @.str.4, i64 noundef %35)
  store i32 1, ptr %7, align 4
  br label %37

37:                                               ; preds = %29, %28, %18
  call void @llvm.lifetime.end.p0(i64 8, ptr %6) #9
  call void @llvm.lifetime.end.p0(i64 8, ptr %5) #9
  call void @llvm.lifetime.end.p0(i64 4, ptr %4) #9
  call void @llvm.lifetime.end.p0(i64 4, ptr %3) #9
  ret void
}