; Function Attrs: nounwind uwtable
define dso_local void @scontrol_pid_info(i32 noundef %0) local_unnamed_addr #0 {
  %2 = alloca i32, align 4
  %3 = alloca i64, align 8
  call void @llvm.lifetime.start.p0(i64 4, ptr nonnull %2) #16
  store i32 0, ptr %2, align 4
  call void @llvm.lifetime.start.p0(i64 8, ptr nonnull %3) #16
  %4 = call i32 @slurm_pid2jobid(i32 noundef %0, ptr noundef nonnull %2) #16
  %.not = icmp eq i32 %4, 0
  br i1 %.not, label %10, label %5

5:                                                ; preds = %1
  store i32 1, ptr @exit_code, align 4
  %6 = load i32, ptr @quiet_flag, align 4
  %.not6 = icmp eq i32 %6, 1
  br i1 %.not6, label %23, label %7

7:                                                ; preds = %5
  %8 = load ptr, ptr @stderr, align 8
  %9 = call i64 @fwrite(ptr nonnull @.str.1, i64 39, i64 1, ptr %8) #18
  br label %23

10:                                               ; preds = %1
  %11 = load i32, ptr %2, align 4
  %12 = call i32 @slurm_get_end_time(i32 noundef %11, ptr noundef nonnull %3) #16
  %.not4 = icmp eq i32 %12, 0
  br i1 %.not4, label %16, label %13

13:                                               ; preds = %10
  store i32 1, ptr @exit_code, align 4
  %14 = load i32, ptr @quiet_flag, align 4
  %.not5 = icmp eq i32 %14, 1
  br i1 %.not5, label %23, label %15

15:                                               ; preds = %13
  call void @slurm_perror(ptr noundef nonnull @.str.2) #16
  br label %23

16:                                               ; preds = %10
  %17 = load i32, ptr %2, align 4
  %18 = call ptr @slurm_ctime2(ptr noundef nonnull %3) #16
  %19 = call i32 (ptr, ...) @printf(ptr noundef nonnull dereferenceable(1) @.str.3, i32 noundef %17, ptr noundef %18)
  %20 = load i32, ptr %2, align 4
  %21 = call i64 @slurm_get_rem_time(i32 noundef %20) #16
  %22 = call i32 (ptr, ...) @printf(ptr noundef nonnull dereferenceable(1) @.str.4, i64 noundef %21)
  br label %23

23:                                               ; preds = %13, %15, %5, %7, %16
  call void @llvm.lifetime.end.p0(i64 8, ptr nonnull %3) #16
  call void @llvm.lifetime.end.p0(i64 4, ptr nonnull %2) #16
  ret void
}